; Function Attrs: nounwind uwtable
define range(i32 0, 2) i32 @test_time_t_eq(ptr noundef %0, i32 noundef %1, ptr noundef %2, ptr noundef %3, i64 noundef %4, i64 noundef %5) local_unnamed_addr #0 {
  %7 = tail call ptr @ASN1_TIME_set(ptr noundef null, i64 noundef %4) #8
  %8 = tail call ptr @ASN1_TIME_set(ptr noundef null, i64 noundef %5) #8
  %9 = icmp ne ptr %7, null
  %10 = icmp ne ptr %8, null
  %or.cond = select i1 %9, i1 %10, i1 false
  br i1 %or.cond, label %11, label %14

11:                                               ; preds = %6
  %12 = tail call i32 @ASN1_TIME_compare(ptr noundef nonnull %7, ptr noundef nonnull %8) #8
  %13 = icmp eq i32 %12, 0
  br i1 %13, label %22, label %.thread18

14:                                               ; preds = %6
  %15 = icmp eq ptr %7, null
  br i1 %15, label %print_time.exit, label %.thread18

.thread18:                                        ; preds = %11, %14
  %16 = tail call ptr @ASN1_STRING_get0_data(ptr noundef nonnull %7) #8
  br label %print_time.exit

print_time.exit:                                  ; preds = %14, %.thread18
  %17 = phi ptr [ %16, %.thread18 ], [ @.str.55, %14 ]
  %18 = icmp eq ptr %8, null
  br i1 %18, label %print_time.exit17, label %19

19:                                               ; preds = %print_time.exit
  %20 = tail call ptr @ASN1_STRING_get0_data(ptr noundef nonnull %8) #8
  br label %print_time.exit17

print_time.exit17:                                ; preds = %print_time.exit, %19
  %21 = phi ptr [ %20, %19 ], [ @.str.55, %print_time.exit ]
  tail call void (ptr, ptr, i32, ptr, ptr, ptr, ptr, ptr, ...) @test_fail_message(ptr poison, ptr noundef %0, i32 noundef %1, ptr noundef nonnull @.str.53, ptr noundef %2, ptr noundef %3, ptr noundef nonnull @.str.12, ptr noundef nonnull @.str.54, ptr noundef %17, ptr noundef %21)
  br label %22

22:                                               ; preds = %print_time.exit17, %11
  %23 = phi i32 [ 0, %print_time.exit17 ], [ 1, %11 ]
  tail call void @ASN1_STRING_free(ptr noundef %7) #8
  tail call void @ASN1_STRING_free(ptr noundef %8) #8
  ret i32 %23
}